target datalayout = "e-m:e-p270:32:32-p271:32:32-p272:64:64-i64:64-i128:128-f80:128-n8:16:32:64-S128"
target triple = "x86_64-pc-linux-gnu"

@.str.20 = private unnamed_addr constant [5 x i8] c"open\00", align 1
@.str.21 = private unnamed_addr constant [5 x i8] c"init\00", align 1

; Function Attrs: nounwind uwtable
define internal i32 @lj_cf_package_loadlib(ptr noundef %0) #0 {
  %2 = alloca i32, align 4
  %3 = alloca ptr, align 8
  %4 = alloca ptr, align 8
  %5 = alloca ptr, align 8
  %6 = alloca i32, align 4
  %7 = alloca i32, align 4
  store ptr %0, ptr %3, align 8, !tbaa !4
  call void @llvm.lifetime.start.p0(i64 8, ptr %4) #5
  %8 = load ptr, ptr %3, align 8, !tbaa !4
  %9 = call ptr @luaL_checklstring(ptr noundef %8, i32 noundef 1, ptr noundef null)
  store ptr %9, ptr %4, align 8, !tbaa !14
  call void @llvm.lifetime.start.p0(i64 8, ptr %5) #5
  %10 = load ptr, ptr %3, align 8, !tbaa !4
  %11 = call ptr @luaL_checklstring(ptr noundef %10, i32 noundef 2, ptr noundef null)
  store ptr %11, ptr %5, align 8, !tbaa !14
  call void @llvm.lifetime.start.p0(i64 4, ptr %6) #5
  %12 = load ptr, ptr %3, align 8, !tbaa !4
  %13 = load ptr, ptr %4, align 8, !tbaa !14
  %14 = load ptr, ptr %5, align 8, !tbaa !14
  %15 = call i32 @ll_loadfunc(ptr noundef %12, ptr noundef %13, ptr noundef %14, i32 noundef 1)
  store i32 %15, ptr %6, align 4, !tbaa !9
  %16 = load i32, ptr %6, align 4, !tbaa !9
  %17 = icmp eq i32 %16, 0
  br i1 %17, label %18, label %19

18:                                               ; preds = %1
  store i32 1, ptr %2, align 4
  store i32 1, ptr %7, align 4
  br label %26

19:                                               ; preds = %1
  %20 = load ptr, ptr %3, align 8, !tbaa !4
  call void @lua_pushnil(ptr noundef %20)
  %21 = load ptr, ptr %3, align 8, !tbaa !4
  call void @lua_insert(ptr noundef %21, i32 noundef -2)
  %22 = load ptr, ptr %3, align 8, !tbaa !4
  %23 = load i32, ptr %6, align 4, !tbaa !9
  %24 = icmp eq i32 %23, 1
  %25 = select i1 %24, ptr @.str.20, ptr @.str.21
  call void @lua_pushstring(ptr noundef %22, ptr noundef %25)
  store i32 3, ptr %2, align 4
  store i32 1, ptr %7, align 4
  br label %26

26:                                               ; preds = %19, %18
  call void @llvm.lifetime.end.p0(i64 4, ptr %6) #5
  call void @llvm.lifetime.end.p0(i64 8, ptr %5) #5
  call void @llvm.lifetime.end.p0(i64 8, ptr %4) #5
  %27 = load i32, ptr %2, align 4
  ret i32 %27
}