; Function Attrs: nounwind uwtable
define internal range(i32 1, 4) i32 @lj_cf_package_loadlib(ptr noundef %0) #0 {
  %2 = tail call ptr @luaL_checklstring(ptr noundef %0, i32 noundef 1, ptr noundef null) #7
  %3 = tail call ptr @luaL_checklstring(ptr noundef %0, i32 noundef 2, ptr noundef null) #7
  %4 = tail call fastcc i32 @ll_loadfunc(ptr noundef %0, ptr noundef %2, ptr noundef %3, i32 noundef 1)
  %5 = icmp eq i32 %4, 0
  br i1 %5, label %9, label %6

6:                                                ; preds = %1
  tail call void @lua_pushnil(ptr noundef %0) #7
  tail call void @lua_insert(ptr noundef %0, i32 noundef -2) #7
  %7 = icmp eq i32 %4, 1
  %8 = select i1 %7, ptr @.str.20, ptr @.str.21
  tail call void @lua_pushstring(ptr noundef %0, ptr noundef nonnull %8) #7
  br label %9

9:                                                ; preds = %1, %6
  %.0 = phi i32 [ 3, %6 ], [ 1, %1 ]
  ret i32 %.0
}